target datalayout = "e-m:e-p270:32:32-p271:32:32-p272:64:64-i64:64-i128:128-f80:128-n8:16:32:64-S128"
target triple = "x86_64-pc-linux-gnu"

@hf_gvsp_profileidc = internal global i32 0, align 4
@hf_gvsp_cs = internal global i32 0, align 4
@hf_gvsp_levelidc = internal global i32 0, align 4
@hf_gvsp_sropinterleavingdepth = internal global i32 0, align 4
@hf_gvsp_sropmaxdondiff = internal global i32 0, align 4
@hf_gvsp_sropdeintbufreq = internal global i32 0, align 4
@hf_gvsp_sropinitbuftime = internal global i32 0, align 4
@ett_gvsp_cs = internal global i32 0, align 4
@cs_fields = internal constant [5 x ptr] [ptr @hf_gvsp_cs0, ptr @hf_gvsp_cs1, ptr @hf_gvsp_cs2, ptr @hf_gvsp_cs3, ptr null], align 16

; Function Attrs: null_pointer_is_valid sspstrong uwtable
define internal void @dissect_h264_leader_common(ptr noundef %0, ptr noundef %1, i32 noundef %2, i32 noundef %3) #0 {
  %5 = alloca ptr, align 8
  %6 = alloca ptr, align 8
  %7 = alloca i32, align 4
  %8 = alloca i32, align 4
  store ptr %0, ptr %5, align 8
  store ptr %1, ptr %6, align 8
  store i32 %2, ptr %7, align 4
  store i32 %3, ptr %8, align 4
  %9 = load ptr, ptr %5, align 8
  %10 = load i32, ptr @hf_gvsp_profileidc, align 4
  %11 = load ptr, ptr %6, align 8
  %12 = load i32, ptr %7, align 4
  %13 = load i32, ptr %8, align 4
  %14 = call ptr @proto_tree_add_item(ptr noundef %9, i32 noundef %10, ptr noundef %11, i32 noundef %12, i32 noundef 1, i32 noundef %13)
  %15 = load ptr, ptr %5, align 8
  %16 = load ptr, ptr %6, align 8
  %17 = load i32, ptr %7, align 4
  %18 = add i32 %17, 1
  %19 = load i32, ptr @hf_gvsp_cs, align 4
  %20 = load i32, ptr @ett_gvsp_cs, align 4
  %21 = load i32, ptr %8, align 4
  %22 = call ptr @proto_tree_add_bitmask(ptr noundef %15, ptr noundef %16, i32 noundef %18, i32 noundef %19, i32 noundef %20, ptr noundef @cs_fields, i32 noundef %21)
  %23 = load ptr, ptr %5, align 8
  %24 = load i32, ptr @hf_gvsp_levelidc, align 4
  %25 = load ptr, ptr %6, align 8
  %26 = load i32, ptr %7, align 4
  %27 = add i32 %26, 2
  %28 = load i32, ptr %8, align 4
  %29 = call ptr @proto_tree_add_item(ptr noundef %23, i32 noundef %24, ptr noundef %25, i32 noundef %27, i32 noundef 1, i32 noundef %28)
  %30 = load ptr, ptr %5, align 8
  %31 = load i32, ptr @hf_gvsp_sropinterleavingdepth, align 4
  %32 = load ptr, ptr %6, align 8
  %33 = load i32, ptr %7, align 4
  %34 = add i32 %33, 3
  %35 = load i32, ptr %8, align 4
  %36 = call ptr @proto_tree_add_item(ptr noundef %30, i32 noundef %31, ptr noundef %32, i32 noundef %34, i32 noundef 2, i32 noundef %35)
  %37 = load ptr, ptr %5, align 8
  %38 = load i32, ptr @hf_gvsp_sropmaxdondiff, align 4
  %39 = load ptr, ptr %6, align 8
  %40 = load i32, ptr %7, align 4
  %41 = add i32 %40, 5
  %42 = load i32, ptr %8, align 4
  %43 = call ptr @proto_tree_add_item(ptr noundef %37, i32 noundef %38, ptr noundef %39, i32 noundef %41, i32 noundef 2, i32 noundef %42)
  %44 = load ptr, ptr %5, align 8
  %45 = load i32, ptr @hf_gvsp_sropdeintbufreq, align 4
  %46 = load ptr, ptr %6, align 8
  %47 = load i32, ptr %7, align 4
  %48 = add i32 %47, 7
  %49 = load i32, ptr %8, align 4
  %50 = call ptr @proto_tree_add_item(ptr noundef %44, i32 noundef %45, ptr noundef %46, i32 noundef %48, i32 noundef 4, i32 noundef %49)
  %51 = load ptr, ptr %5, align 8
  %52 = load i32, ptr @hf_gvsp_sropinitbuftime, align 4
  %53 = load ptr, ptr %6, align 8
  %54 = load i32, ptr %7, align 4
  %55 = add i32 %54, 11
  %56 = load i32, ptr %8, align 4
  %57 = call ptr @proto_tree_add_item(ptr noundef %51, i32 noundef %52, ptr noundef %53, i32 noundef %55, i32 noundef 4, i32 noundef %56)
  ret void
}