; Function Attrs: null_pointer_is_valid sspstrong uwtable
define internal fastcc void @dissect_h264_leader_common(ptr noundef %0, ptr noundef %1, i32 noundef %2, i32 noundef range(i32 -2147483648, 1) %3) unnamed_addr #0 {
  %5 = load i32, ptr @hf_gvsp_profileidc, align 4
  %6 = tail call ptr @proto_tree_add_item(ptr noundef %0, i32 noundef %5, ptr noundef %1, i32 noundef %2, i32 noundef 1, i32 noundef %3)
  %7 = add i32 %2, 1
  %8 = load i32, ptr @hf_gvsp_cs, align 4
  %9 = load i32, ptr @ett_gvsp_cs, align 4
  %10 = tail call ptr @proto_tree_add_bitmask(ptr noundef %0, ptr noundef %1, i32 noundef %7, i32 noundef %8, i32 noundef %9, ptr noundef nonnull @cs_fields, i32 noundef %3)
  %11 = load i32, ptr @hf_gvsp_levelidc, align 4
  %12 = add i32 %2, 2
  %13 = tail call ptr @proto_tree_add_item(ptr noundef %0, i32 noundef %11, ptr noundef %1, i32 noundef %12, i32 noundef 1, i32 noundef %3)
  %14 = load i32, ptr @hf_gvsp_sropinterleavingdepth, align 4
  %15 = add i32 %2, 3
  %16 = tail call ptr @proto_tree_add_item(ptr noundef %0, i32 noundef %14, ptr noundef %1, i32 noundef %15, i32 noundef 2, i32 noundef %3)
  %17 = load i32, ptr @hf_gvsp_sropmaxdondiff, align 4
  %18 = add i32 %2, 5
  %19 = tail call ptr @proto_tree_add_item(ptr noundef %0, i32 noundef %17, ptr noundef %1, i32 noundef %18, i32 noundef 2, i32 noundef %3)
  %20 = load i32, ptr @hf_gvsp_sropdeintbufreq, align 4
  %21 = add i32 %2, 7
  %22 = tail call ptr @proto_tree_add_item(ptr noundef %0, i32 noundef %20, ptr noundef %1, i32 noundef %21, i32 noundef 4, i32 noundef %3)
  %23 = load i32, ptr @hf_gvsp_sropinitbuftime, align 4
  %24 = add i32 %2, 11
  %25 = tail call ptr @proto_tree_add_item(ptr noundef %0, i32 noundef %23, ptr noundef %1, i32 noundef %24, i32 noundef 4, i32 noundef %3)
  ret void
}